; ModuleID = '10/1535.c'
source_filename = "10/1535.c"
target datalayout = "e-m:e-p270:32:32-p271:32:32-p272:64:64-i64:64-f80:128-n8:16:32:64-S128"
target triple = "x86_64-pc-linux-gnu"

@.str = private unnamed_addr constant [3 x i8] c"%d\00", align 1

; Function Attrs: noinline nounwind uwtable
define dso_local void @main() #0 {
  %1 = alloca i32, align 4
  %2 = alloca i32, align 4
  %3 = alloca i32, align 4
  %4 = alloca i32, align 4
  %5 = alloca i32*, align 8
  %6 = alloca i32*, align 8
  %7 = call i32 (i8*, ...) @__isoc99_scanf(i8* getelementptr inbounds ([3 x i8], [3 x i8]* @.str, i64 0, i64 0), i32* %3)
  %8 = load i32, i32* %3, align 4
  %9 = sext i32 %8 to i64
  %10 = mul i64 %9, 4
  %11 = call noalias i8* @malloc(i64 %10) #3
  %12 = bitcast i8* %11 to i32*
  store i32* %12, i32** %5, align 8
  %13 = load i32, i32* %3, align 4
  %14 = sext i32 %13 to i64
  %15 = mul i64 %14, 4
  %16 = call noalias i8* @malloc(i64 %15) #3
  %17 = bitcast i8* %16 to i32*
  store i32* %17, i32** %6, align 8
  store i32 0, i32* %1, align 4
  br label %18

18:                                               ; preds = %29, %0
  %19 = load i32, i32* %1, align 4
  %20 = load i32, i32* %3, align 4
  %21 = sub nsw i32 %20, 1
  %22 = icmp sle i32 %19, %21
  br i1 %22, label %23, label %32

23:                                               ; preds = %18
  %24 = load i32*, i32** %5, align 8
  %25 = load i32, i32* %1, align 4
  %26 = sext i32 %25 to i64
  %27 = getelementptr inbounds i32, i32* %24, i64 %26
  %28 = call i32 (i8*, ...) @__isoc99_scanf(i8* getelementptr inbounds ([3 x i8], [3 x i8]* @.str, i64 0, i64 0), i32* %27)
  br label %29

29:                                               ; preds = %23
  %30 = load i32, i32* %1, align 4
  %31 = add nsw i32 %30, 1
  store i32 %31, i32* %1, align 4
  br label %18

32:                                               ; preds = %18
  store i32 0, i32* %1, align 4
  br label %33

33:                                               ; preds = %81, %32
  %34 = load i32, i32* %1, align 4
  %35 = load i32, i32* %3, align 4
  %36 = sub nsw i32 %35, 1
  %37 = icmp sle i32 %34, %36
  br i1 %37, label %38, label %84

38:                                               ; preds = %33
  store i32 0, i32* %4, align 4
  store i32 0, i32* %2, align 4
  br label %39

39:                                               ; preds = %71, %38
  %40 = load i32, i32* %2, align 4
  %41 = load i32, i32* %1, align 4
  %42 = icmp slt i32 %40, %41
  br i1 %42, label %43, label %74

43:                                               ; preds = %39
  %44 = load i32*, i32** %5, align 8
  %45 = load i32, i32* %2, align 4
  %46 = sext i32 %45 to i64
  %47 = getelementptr inbounds i32, i32* %44, i64 %46
  %48 = load i32, i32* %47, align 4
  %49 = load i32*, i32** %5, align 8
  %50 = load i32, i32* %1, align 4
  %51 = sext i32 %50 to i64
  %52 = getelementptr inbounds i32, i32* %49, i64 %51
  %53 = load i32, i32* %52, align 4
  %54 = icmp sge i32 %48, %53
  br i1 %54, label %55, label %70

55:                                               ; preds = %43
  %56 = load i32, i32* %4, align 4
  %57 = load i32*, i32** %6, align 8
  %58 = load i32, i32* %2, align 4
  %59 = sext i32 %58 to i64
  %60 = getelementptr inbounds i32, i32* %57, i64 %59
  %61 = load i32, i32* %60, align 4
  %62 = icmp slt i32 %56, %61
  br i1 %62, label %63, label %69

63:                                               ; preds = %55
  %64 = load i32*, i32** %6, align 8
  %65 = load i32, i32* %2, align 4
  %66 = sext i32 %65 to i64
  %67 = getelementptr inbounds i32, i32* %64, i64 %66
  %68 = load i32, i32* %67, align 4
  store i32 %68, i32* %4, align 4
  br label %69

69:                                               ; preds = %63, %55
  br label %70

70:                                               ; preds = %69, %43
  br label %71

71:                                               ; preds = %70
  %72 = load i32, i32* %2, align 4
  %73 = add nsw i32 %72, 1
  store i32 %73, i32* %2, align 4
  br label %39

74:                                               ; preds = %39
  %75 = load i32, i32* %4, align 4
  %76 = add nsw i32 %75, 1
  %77 = load i32*, i32** %6, align 8
  %78 = load i32, i32* %1, align 4
  %79 = sext i32 %78 to i64
  %80 = getelementptr inbounds i32, i32* %77, i64 %79
  store i32 %76, i32* %80, align 4
  br label %81

81:                                               ; preds = %74
  %82 = load i32, i32* %1, align 4
  %83 = add nsw i32 %82, 1
  store i32 %83, i32* %1, align 4
  br label %33

84:                                               ; preds = %33
  store i32 0, i32* %4, align 4
  store i32 0, i32* %1, align 4
  br label %85

85:                                               ; preds = %105, %84
  %86 = load i32, i32* %1, align 4
  %87 = load i32, i32* %3, align 4
  %88 = sub nsw i32 %87, 1
  %89 = icmp sle i32 %86, %88
  br i1 %89, label %90, label %108

90:                                               ; preds = %85
  %91 = load i32*, i32** %6, align 8
  %92 = load i32, i32* %1, align 4
  %93 = sext i32 %92 to i64
  %94 = getelementptr inbounds i32, i32* %91, i64 %93
  %95 = load i32, i32* %94, align 4
  %96 = load i32, i32* %4, align 4
  %97 = icmp sgt i32 %95, %96
  br i1 %97, label %98, label %104

98:                                               ; preds = %90
  %99 = load i32*, i32** %6, align 8
  %100 = load i32, i32* %1, align 4
  %101 = sext i32 %100 to i64
  %102 = getelementptr inbounds i32, i32* %99, i64 %101
  %103 = load i32, i32* %102, align 4
  store i32 %103, i32* %4, align 4
  br label %104

104:                                              ; preds = %98, %90
  br label %105

105:                                              ; preds = %104
  %106 = load i32, i32* %1, align 4
  %107 = add nsw i32 %106, 1
  store i32 %107, i32* %1, align 4
  br label %85

108:                                              ; preds = %85
  %109 = load i32, i32* %4, align 4
  %110 = call i32 (i8*, ...) @printf(i8* getelementptr inbounds ([3 x i8], [3 x i8]* @.str, i64 0, i64 0), i32 %109)
  ret void
}

declare dso_local i32 @__isoc99_scanf(i8*, ...) #1

; Function Attrs: nounwind
declare dso_local noalias i8* @malloc(i64) #2

declare dso_local i32 @printf(i8*, ...) #1


!llvm.module.flags = !{!0}
!llvm.ident = !{!1}

!0 = !{i32 1, !"wchar_size", i32 4}
!1 = !{!"clang version 10.0.0-4ubuntu1 "}
